(cnumpy.core.multiarray
scalar
p0
(cnumpy
dtype
p1
(S'f8'
p2
I0
I1
tp3
Rp4
(I3
S'<'
p5
NNNI-1
I-1
I0
tp6
bS'\x17\xc66\xa7\x17Q\xda?'
p7
tp8
Rp9
g0
(g4
S'\xa2^^\xdf\xfd\xde\xdb?'
p10
tp11
Rp12
g0
(g4
S"98'1\xb8\x9b\xce?"
p13
tp14
Rp15
(lp16
I10000
ag0
(g4
S'\x1e\x96M01\x9d\xc3@'
p17
tp18
Rp19
ag0
(g4
S'\xecZ2\x8d\x1bq\xc3@'
p20
tp21
Rp22
ag0
(g4
S'\x7fS\x8b\x7f3)\xc3@'
p23
tp24
Rp25
ag0
(g4
S'\x11\xe3\xf9X\xde\xed\xc2@'
p26
tp27
Rp28
ag0
(g4
S'\xe5+\xe1\x16\xe6\x17\xc3@'
p29
tp30
Rp31
ag0
(g4
S'\x9d\xb1-\x8b\xad\x80\xc3@'
p32
tp33
Rp34
ag0
(g4
S'FOh\xa5\xda\n\xc4@'
p35
tp36
Rp37
ag0
(g4
S'n)C\xba\xbe}\xc4@'
p38
tp39
Rp40
ag0
(g4
S'\x07\xf8Pph\xdd\xc4@'
p41
tp42
Rp43
ag0
(g4
S'!\xaaL\xa4\xb4\xa7\xc4@'
p44
tp45
Rp46
ag0
(g4
S'\xa8\xa6:8\x827\xc4@'
p47
tp48
Rp49
ag0
(g4
S'}\x8e,Q\x90\x8d\xc4@'
p50
tp51
Rp52
ag0
(g4
S'\x8c\xf2\xc5\xe6W\x0f\xc5@'
p53
tp54
Rp55
ag0
(g4
S'\\h\xf4{\x96\x8c\xc4@'
p56
tp57
Rp58
ag0
(g4
S'\xf8\xda\xce\xad\x03S\xc5@'
p59
tp60
Rp61
ag0
(g4
S'\x88\x1d\x97\xaa\xcf\x15\xc6@'
p62
tp63
Rp64
ag0
(g4
S'\x0f\x00\xa4\xca\xe3M\xc6@'
p65
tp66
Rp67
ag0
(g4
S'\xdeqq\xc0\xff]\xc6@'
p68
tp69
Rp70
ag0
(g4
S'\xc9\xa6w\t\x1e\x9e\xc6@'
p71
tp72
Rp73
ag0
(g4
S'\t\xf2\x94z[\x8f\xc6@'
p74
tp75
Rp76
a(lp77
I10000
aF10080.820565784306
aF10005.295382055863
aF9859.725570190161
aF9691.520168809158
aF9783.823730378866
aF10025.660251163054
aF10310.641100418947
aF10525.316568896324
aF10696.399156424346
aF10606.052944378505
aF10393.371554472915
aF10601.429477223934
aF10873.712355337904
aF10666.846310129078
aF11029.44744487738
aF11447.895269826447
aF11580.898556695514
aF11626.523351425505
aF11722.780068222146
aF11641.355663712218
a(lp78
I10000
acnumpy.core.multiarray
_reconstruct
p79
(cnumpy.matrixlib.defmatrix
matrix
p80
(I0
tp81
S'b'
p82
tp83
Rp84
(I1
(L1L
L1L
tp85
g4
I00
S'"\xdc\xc6\x91\x97\x08\xc3@'
p86
tp87
bag79
(g80
(I0
tp88
g82
tp89
Rp90
(I1
(L1L
L1L
tp91
g4
I00
S'&\x8a\xc9\x19\xb62\xc2@'
p92
tp93
bag79
(g80
(I0
tp94
g82
tp95
Rp96
(I1
(L1L
L1L
tp97
g4
I00
S'\xef\xa2r\xe6\xda\xfe\xc1@'
p98
tp99
bag79
(g80
(I0
tp100
g82
tp101
Rp102
(I1
(L1L
L1L
tp103
g4
I00
S'\x01\xf5Wl^E\xc2@'
p104
tp105
bag79
(g80
(I0
tp106
g82
tp107
Rp108
(I1
(L1L
L1L
tp109
g4
I00
S'\xdb\x9a\xdd\xb7\xb5\x9b\xc2@'
p110
tp111
bag79
(g80
(I0
tp112
g82
tp113
Rp114
(I1
(L1L
L1L
tp115
g4
I00
S'.QE\xb2\xaf\x85\xc3@'
p116
tp117
bag79
(g80
(I0
tp118
g82
tp119
Rp120
(I1
(L1L
L1L
tp121
g4
I00
S'/5\x03&\xf7\xb2\xc4@'
p122
tp123
bag79
(g80
(I0
tp124
g82
tp125
Rp126
(I1
(L1L
L1L
tp127
g4
I00
S'O\xe5\xf4\xe9\xe4\xe0\xc4@'
p128
tp129
bag79
(g80
(I0
tp130
g82
tp131
Rp132
(I1
(L1L
L1L
tp133
g4
I00
S'\x97\x956v\xb0.\xc6@'
p134
tp135
bag79
(g80
(I0
tp136
g82
tp137
Rp138
(I1
(L1L
L1L
tp139
g4
I00
S'$:\x9e\x145\xb4\xc6@'
p140
tp141
bag79
(g80
(I0
tp142
g82
tp143
Rp144
(I1
(L1L
L1L
tp145
g4
I00
S' \r\x94\xf4\xf2f\xc6@'
p146
tp147
bag79
(g80
(I0
tp148
g82
tp149
Rp150
(I1
(L1L
L1L
tp151
g4
I00
S'9\x17\x97\x9e\x88\xd4\xc6@'
p152
tp153
bag79
(g80
(I0
tp154
g82
tp155
Rp156
(I1
(L1L
L1L
tp157
g4
I00
S'\x13\xf4+\\\xa2\xba\xc8@'
p158
tp159
bag79
(g80
(I0
tp160
g82
tp161
Rp162
(I1
(L1L
L1L
tp163
g4
I00
S'\xcf\xadcC\xaa4\xc5@'
p164
tp165
bag79
(g80
(I0
tp166
g82
tp167
Rp168
(I1
(L1L
L1L
tp169
g4
I00
S'\xa4\x96" \xfdH\xc6@'
p170
tp171
bag79
(g80
(I0
tp172
g82
tp173
Rp174
(I1
(L1L
L1L
tp175
g4
I00
S'\xf9H\xfdZS\xfa\xc5@'
p176
tp177
bag79
(g80
(I0
tp178
g82
tp179
Rp180
(I1
(L1L
L1L
tp181
g4
I00
S'\xb9\xd8w\x15hu\xc6@'
p182
tp183
bag79
(g80
(I0
tp184
g82
tp185
Rp186
(I1
(L1L
L1L
tp187
g4
I00
S'R\xdc\xc9\x04yf\xc6@'
p188
tp189
bag79
(g80
(I0
tp190
g82
tp191
Rp192
(I1
(L1L
L1L
tp193
g4
I00
S'Zq\xcf*\xe4\x83\xc6@'
p194
tp195
bag79
(g80
(I0
tp196
g82
tp197
Rp198
(I1
(L1L
L1L
tp199
g4
I00
S'\xe3\x92\xe8\xe1\xd9\xfd\xc7@'
p200
tp201
batp202
.